target datalayout = "e-m:e-p270:32:32-p271:32:32-p272:64:64-i64:64-i128:128-f80:128-n8:16:32:64-S128"
target triple = "x86_64-pc-linux-gnu"

%struct._SPI_connection = type { i64, ptr, i32, %struct.slist_head, ptr, ptr, ptr, i32, ptr, i8, i8, i64, ptr, i32 }
%struct.slist_head = type { %struct.slist_node }
%struct.slist_node = type { ptr }
%struct._SPI_plan = type { i32, i8, i8, ptr, ptr, i32, i32, i32, ptr, ptr, ptr }
%struct.SPICallbackArg = type { ptr, i32 }
%struct.ErrorContextCallback = type { ptr, ptr, ptr }
%struct.ForEachState = type { ptr, i32 }
%struct.List = type { i32, i32, i32, ptr, [0 x %union.ListCell] }
%union.ListCell = type { ptr }
%struct.RawStmt = type { i32, ptr, i32, i32 }

@_SPI_current = internal global ptr null, align 8
@error_context_stack = external global ptr, align 8

; Function Attrs: nounwind uwtable
define internal void @_SPI_prepare_plan(ptr noundef %0, ptr noundef %1) #0 {
  %3 = alloca ptr, align 8
  %4 = alloca ptr, align 8
  %5 = alloca ptr, align 8
  %6 = alloca ptr, align 8
  %7 = alloca ptr, align 8
  %8 = alloca %struct.SPICallbackArg, align 8
  %9 = alloca %struct.ErrorContextCallback, align 8
  %10 = alloca %struct.ForEachState, align 8
  %11 = alloca ptr, align 8
  %12 = alloca ptr, align 8
  %13 = alloca ptr, align 8
  store ptr %0, ptr %3, align 8
  store ptr %1, ptr %4, align 8
  call void @llvm.lifetime.start.p0(i64 8, ptr %5) #9
  call void @llvm.lifetime.start.p0(i64 8, ptr %6) #9
  call void @llvm.lifetime.start.p0(i64 8, ptr %7) #9
  call void @llvm.lifetime.start.p0(i64 16, ptr %8) #9
  call void @llvm.lifetime.start.p0(i64 24, ptr %9) #9
  %14 = load ptr, ptr %3, align 8
  %15 = getelementptr inbounds nuw %struct.SPICallbackArg, ptr %8, i32 0, i32 0
  store ptr %14, ptr %15, align 8
  %16 = load ptr, ptr %4, align 8
  %17 = getelementptr inbounds nuw %struct._SPI_plan, ptr %16, i32 0, i32 5
  %18 = load i32, ptr %17, align 8
  %19 = getelementptr inbounds nuw %struct.SPICallbackArg, ptr %8, i32 0, i32 1
  store i32 %18, ptr %19, align 8
  %20 = getelementptr inbounds nuw %struct.ErrorContextCallback, ptr %9, i32 0, i32 1
  store ptr @_SPI_error_callback, ptr %20, align 8
  %21 = getelementptr inbounds nuw %struct.ErrorContextCallback, ptr %9, i32 0, i32 2
  store ptr %8, ptr %21, align 8
  %22 = load ptr, ptr @error_context_stack, align 8
  %23 = getelementptr inbounds nuw %struct.ErrorContextCallback, ptr %9, i32 0, i32 0
  store ptr %22, ptr %23, align 8
  store ptr %9, ptr @error_context_stack, align 8
  %24 = load ptr, ptr %3, align 8
  %25 = load ptr, ptr %4, align 8
  %26 = getelementptr inbounds nuw %struct._SPI_plan, ptr %25, i32 0, i32 5
  %27 = load i32, ptr %26, align 8
  %28 = call ptr @raw_parser(ptr noundef %24, i32 noundef %27)
  store ptr %28, ptr %5, align 8
  store ptr null, ptr %6, align 8
  call void @llvm.lifetime.start.p0(i64 16, ptr %10) #9
  %29 = getelementptr inbounds nuw %struct.ForEachState, ptr %10, i32 0, i32 0
  %30 = load ptr, ptr %5, align 8
  store ptr %30, ptr %29, align 8
  %31 = getelementptr inbounds nuw %struct.ForEachState, ptr %10, i32 0, i32 1
  store i32 0, ptr %31, align 8
  %32 = getelementptr i8, ptr %10, i64 12
  call void @llvm.memset.p0.i64(ptr align 4 %32, i8 0, i64 4, i1 false)
  br label %33

33:                                               ; preds = %120, %2
  %34 = getelementptr inbounds nuw %struct.ForEachState, ptr %10, i32 0, i32 0
  %35 = load ptr, ptr %34, align 8
  %36 = icmp ne ptr %35, null
  br i1 %36, label %37, label %54

37:                                               ; preds = %33
  %38 = getelementptr inbounds nuw %struct.ForEachState, ptr %10, i32 0, i32 1
  %39 = load i32, ptr %38, align 8
  %40 = getelementptr inbounds nuw %struct.ForEachState, ptr %10, i32 0, i32 0
  %41 = load ptr, ptr %40, align 8
  %42 = getelementptr inbounds nuw %struct.List, ptr %41, i32 0, i32 1
  %43 = load i32, ptr %42, align 4
  %44 = icmp slt i32 %39, %43
  br i1 %44, label %45, label %54

45:                                               ; preds = %37
  %46 = getelementptr inbounds nuw %struct.ForEachState, ptr %10, i32 0, i32 0
  %47 = load ptr, ptr %46, align 8
  %48 = getelementptr inbounds nuw %struct.List, ptr %47, i32 0, i32 3
  %49 = load ptr, ptr %48, align 8
  %50 = getelementptr inbounds nuw %struct.ForEachState, ptr %10, i32 0, i32 1
  %51 = load i32, ptr %50, align 8
  %52 = sext i32 %51 to i64
  %53 = getelementptr inbounds %union.ListCell, ptr %49, i64 %52
  store ptr %53, ptr %7, align 8
  br label %55

54:                                               ; preds = %37, %33
  store ptr null, ptr %7, align 8
  br label %55

55:                                               ; preds = %54, %45
  %56 = phi i32 [ 1, %45 ], [ 0, %54 ]
  %57 = icmp ne i32 %56, 0
  br i1 %57, label %59, label %58

58:                                               ; preds = %55
  call void @llvm.lifetime.end.p0(i64 16, ptr %10) #9
  br label %124

59:                                               ; preds = %55
  call void @llvm.lifetime.start.p0(i64 8, ptr %11) #9
  %60 = load ptr, ptr %7, align 8
  %61 = load ptr, ptr %60, align 8
  store ptr %61, ptr %11, align 8
  call void @llvm.lifetime.start.p0(i64 8, ptr %12) #9
  call void @llvm.lifetime.start.p0(i64 8, ptr %13) #9
  %62 = load ptr, ptr %11, align 8
  %63 = load ptr, ptr %3, align 8
  %64 = load ptr, ptr %11, align 8
  %65 = getelementptr inbounds nuw %struct.RawStmt, ptr %64, i32 0, i32 1
  %66 = load ptr, ptr %65, align 8
  %67 = call i32 @CreateCommandTag(ptr noundef %66)
  %68 = call ptr @CreateCachedPlan(ptr noundef %62, ptr noundef %63, i32 noundef %67)
  store ptr %68, ptr %13, align 8
  %69 = load ptr, ptr %4, align 8
  %70 = getelementptr inbounds nuw %struct._SPI_plan, ptr %69, i32 0, i32 9
  %71 = load ptr, ptr %70, align 8
  %72 = icmp ne ptr %71, null
  br i1 %72, label %73, label %86

73:                                               ; preds = %59
  %74 = load ptr, ptr %11, align 8
  %75 = load ptr, ptr %3, align 8
  %76 = load ptr, ptr %4, align 8
  %77 = getelementptr inbounds nuw %struct._SPI_plan, ptr %76, i32 0, i32 9
  %78 = load ptr, ptr %77, align 8
  %79 = load ptr, ptr %4, align 8
  %80 = getelementptr inbounds nuw %struct._SPI_plan, ptr %79, i32 0, i32 10
  %81 = load ptr, ptr %80, align 8
  %82 = load ptr, ptr @_SPI_current, align 8
  %83 = getelementptr inbounds nuw %struct._SPI_connection, ptr %82, i32 0, i32 8
  %84 = load ptr, ptr %83, align 8
  %85 = call ptr @pg_analyze_and_rewrite_withcb(ptr noundef %74, ptr noundef %75, ptr noundef %78, ptr noundef %81, ptr noundef %84)
  store ptr %85, ptr %12, align 8
  br label %99

86:                                               ; preds = %59
  %87 = load ptr, ptr %11, align 8
  %88 = load ptr, ptr %3, align 8
  %89 = load ptr, ptr %4, align 8
  %90 = getelementptr inbounds nuw %struct._SPI_plan, ptr %89, i32 0, i32 8
  %91 = load ptr, ptr %90, align 8
  %92 = load ptr, ptr %4, align 8
  %93 = getelementptr inbounds nuw %struct._SPI_plan, ptr %92, i32 0, i32 7
  %94 = load i32, ptr %93, align 8
  %95 = load ptr, ptr @_SPI_current, align 8
  %96 = getelementptr inbounds nuw %struct._SPI_connection, ptr %95, i32 0, i32 8
  %97 = load ptr, ptr %96, align 8
  %98 = call ptr @pg_analyze_and_rewrite_fixedparams(ptr noundef %87, ptr noundef %88, ptr noundef %91, i32 noundef %94, ptr noundef %97)
  store ptr %98, ptr %12, align 8
  br label %99

99:                                               ; preds = %86, %73
  %100 = load ptr, ptr %13, align 8
  %101 = load ptr, ptr %12, align 8
  %102 = load ptr, ptr %4, align 8
  %103 = getelementptr inbounds nuw %struct._SPI_plan, ptr %102, i32 0, i32 8
  %104 = load ptr, ptr %103, align 8
  %105 = load ptr, ptr %4, align 8
  %106 = getelementptr inbounds nuw %struct._SPI_plan, ptr %105, i32 0, i32 7
  %107 = load i32, ptr %106, align 8
  %108 = load ptr, ptr %4, align 8
  %109 = getelementptr inbounds nuw %struct._SPI_plan, ptr %108, i32 0, i32 9
  %110 = load ptr, ptr %109, align 8
  %111 = load ptr, ptr %4, align 8
  %112 = getelementptr inbounds nuw %struct._SPI_plan, ptr %111, i32 0, i32 10
  %113 = load ptr, ptr %112, align 8
  %114 = load ptr, ptr %4, align 8
  %115 = getelementptr inbounds nuw %struct._SPI_plan, ptr %114, i32 0, i32 6
  %116 = load i32, ptr %115, align 4
  call void @CompleteCachedPlan(ptr noundef %100, ptr noundef %101, ptr noundef null, ptr noundef %104, i32 noundef %107, ptr noundef %110, ptr noundef %113, i32 noundef %116, i1 noundef zeroext false)
  %117 = load ptr, ptr %6, align 8
  %118 = load ptr, ptr %13, align 8
  %119 = call ptr @lappend(ptr noundef %117, ptr noundef %118)
  store ptr %119, ptr %6, align 8
  call void @llvm.lifetime.end.p0(i64 8, ptr %13) #9
  call void @llvm.lifetime.end.p0(i64 8, ptr %12) #9
  call void @llvm.lifetime.end.p0(i64 8, ptr %11) #9
  br label %120

120:                                              ; preds = %99
  %121 = getelementptr inbounds nuw %struct.ForEachState, ptr %10, i32 0, i32 1
  %122 = load i32, ptr %121, align 8
  %123 = add i32 %122, 1
  store i32 %123, ptr %121, align 8
  br label %33, !llvm.loop !14

124:                                              ; preds = %58
  %125 = load ptr, ptr %6, align 8
  %126 = load ptr, ptr %4, align 8
  %127 = getelementptr inbounds nuw %struct._SPI_plan, ptr %126, i32 0, i32 3
  store ptr %125, ptr %127, align 8
  %128 = load ptr, ptr %4, align 8
  %129 = getelementptr inbounds nuw %struct._SPI_plan, ptr %128, i32 0, i32 2
  store i8 0, ptr %129, align 1
  %130 = getelementptr inbounds nuw %struct.ErrorContextCallback, ptr %9, i32 0, i32 0
  %131 = load ptr, ptr %130, align 8
  store ptr %131, ptr @error_context_stack, align 8
  call void @llvm.lifetime.end.p0(i64 24, ptr %9) #9
  call void @llvm.lifetime.end.p0(i64 16, ptr %8) #9
  call void @llvm.lifetime.end.p0(i64 8, ptr %7) #9
  call void @llvm.lifetime.end.p0(i64 8, ptr %6) #9
  call void @llvm.lifetime.end.p0(i64 8, ptr %5) #9
  ret void
}