; Function Attrs: nounwind uwtable
define internal fastcc void @_SPI_prepare_plan(ptr noundef nonnull %0, ptr noundef nonnull captures(none) %1) unnamed_addr #0 {
  %3 = alloca %struct.SPICallbackArg, align 8
  %4 = alloca %struct.ErrorContextCallback, align 8
  call void @llvm.lifetime.start.p0(i64 16, ptr nonnull %3) #15
  call void @llvm.lifetime.start.p0(i64 24, ptr nonnull %4) #15
  store ptr %0, ptr %3, align 8
  %5 = getelementptr inbounds nuw i8, ptr %1, i64 24
  %6 = load i32, ptr %5, align 8
  %7 = getelementptr inbounds nuw i8, ptr %3, i64 8
  store i32 %6, ptr %7, align 8
  %8 = getelementptr inbounds nuw i8, ptr %4, i64 8
  store ptr @_SPI_error_callback, ptr %8, align 8
  %9 = getelementptr inbounds nuw i8, ptr %4, i64 16
  store ptr %3, ptr %9, align 8
  %10 = load ptr, ptr @error_context_stack, align 8
  store ptr %10, ptr %4, align 8
  store ptr %4, ptr @error_context_stack, align 8
  %11 = call ptr @raw_parser(ptr noundef nonnull %0, i32 noundef %6) #15
  %12 = getelementptr inbounds nuw i8, ptr %11, i64 4
  %.not = icmp eq ptr %11, null
  br i1 %.not, label %._crit_edge, label %.lr.ph

.lr.ph:                                           ; preds = %2
  %13 = getelementptr inbounds nuw i8, ptr %11, i64 16
  %14 = getelementptr inbounds nuw i8, ptr %1, i64 48
  %15 = getelementptr inbounds nuw i8, ptr %1, i64 56
  %16 = getelementptr inbounds nuw i8, ptr %1, i64 40
  %17 = getelementptr inbounds nuw i8, ptr %1, i64 32
  %18 = getelementptr inbounds nuw i8, ptr %1, i64 28
  %19 = load i32, ptr %12, align 4
  %20 = icmp sgt i32 %19, 0
  br i1 %20, label %.lr.ph49, label %._crit_edge

._crit_edge:                                      ; preds = %45, %.lr.ph, %2
  %.0.lcssa = phi ptr [ null, %2 ], [ null, %.lr.ph ], [ %51, %45 ]
  %21 = getelementptr inbounds nuw i8, ptr %1, i64 8
  store ptr %.0.lcssa, ptr %21, align 8
  %22 = getelementptr inbounds nuw i8, ptr %1, i64 5
  store i8 0, ptr %22, align 1
  %23 = load ptr, ptr %4, align 8
  store ptr %23, ptr @error_context_stack, align 8
  call void @llvm.lifetime.end.p0(i64 24, ptr nonnull %4) #15
  call void @llvm.lifetime.end.p0(i64 16, ptr nonnull %3) #15
  ret void

.lr.ph49:                                         ; preds = %.lr.ph, %45
  %.04348 = phi ptr [ %51, %45 ], [ null, %.lr.ph ]
  %indvars.iv47 = phi i64 [ %indvars.iv.next, %45 ], [ 0, %.lr.ph ]
  %24 = load ptr, ptr %13, align 8
  %25 = getelementptr inbounds nuw %union.ListCell, ptr %24, i64 %indvars.iv47
  %26 = load ptr, ptr %25, align 8
  %27 = getelementptr inbounds nuw i8, ptr %26, i64 8
  %28 = load ptr, ptr %27, align 8
  %29 = call i32 @CreateCommandTag(ptr noundef %28) #15
  %30 = call ptr @CreateCachedPlan(ptr noundef %26, ptr noundef nonnull %0, i32 noundef %29) #15
  %31 = load ptr, ptr %14, align 8
  %.not39 = icmp eq ptr %31, null
  br i1 %.not39, label %38, label %32

32:                                               ; preds = %.lr.ph49
  %33 = load ptr, ptr %15, align 8
  %34 = load ptr, ptr @_SPI_current, align 8
  %35 = getelementptr inbounds nuw i8, ptr %34, i64 64
  %36 = load ptr, ptr %35, align 8
  %37 = call ptr @pg_analyze_and_rewrite_withcb(ptr noundef nonnull %26, ptr noundef nonnull %0, ptr noundef nonnull %31, ptr noundef %33, ptr noundef %36) #15
  br label %45

38:                                               ; preds = %.lr.ph49
  %39 = load ptr, ptr %16, align 8
  %40 = load i32, ptr %17, align 8
  %41 = load ptr, ptr @_SPI_current, align 8
  %42 = getelementptr inbounds nuw i8, ptr %41, i64 64
  %43 = load ptr, ptr %42, align 8
  %44 = call ptr @pg_analyze_and_rewrite_fixedparams(ptr noundef nonnull %26, ptr noundef nonnull %0, ptr noundef %39, i32 noundef %40, ptr noundef %43) #15
  br label %45

45:                                               ; preds = %38, %32
  %.034 = phi ptr [ %37, %32 ], [ %44, %38 ]
  %46 = load ptr, ptr %16, align 8
  %47 = load i32, ptr %17, align 8
  %48 = load ptr, ptr %14, align 8
  %49 = load ptr, ptr %15, align 8
  %50 = load i32, ptr %18, align 4
  call void @CompleteCachedPlan(ptr noundef %30, ptr noundef %.034, ptr noundef null, ptr noundef %46, i32 noundef %47, ptr noundef %48, ptr noundef %49, i32 noundef %50, i1 noundef zeroext false) #15
  %51 = call ptr @lappend(ptr noundef %.04348, ptr noundef %30) #15
  %indvars.iv.next = add nuw nsw i64 %indvars.iv47, 1
  %52 = load i32, ptr %12, align 4
  %53 = sext i32 %52 to i64
  %54 = icmp slt i64 %indvars.iv.next, %53
  br i1 %54, label %.lr.ph49, label %._crit_edge
}